; Function Attrs: mustprogress nounwind uwtable
define hidden void @_ZN12G1HeapRegion23set_continues_humongousEPS_(ptr noundef nonnull align 8 dereferenceable(136) %0, ptr noundef %1) local_unnamed_addr #1 align 2 {
  %3 = getelementptr inbounds i8, ptr %0, i64 48
  %4 = load i32, ptr %3, align 8
  %5 = getelementptr inbounds i8, ptr %0, i64 52
  %6 = tail call noundef i32 @_ZN16G1HeapRegionType14get_trace_typeEv(ptr noundef nonnull align 4 dereferenceable(4) %5) #16
  %7 = load ptr, ptr %0, align 8
  %8 = ptrtoint ptr %7 to i64
  %9 = getelementptr inbounds i8, ptr %0, i64 16
  %10 = load volatile ptr, ptr %9, align 8
  %11 = ptrtoint ptr %10 to i64
  %12 = sub i64 %11, %8
  tail call void @_ZN18G1HeapRegionTracer23send_region_type_changeEjN21G1HeapRegionTraceType4TypeES1_mm(i32 noundef %4, i32 noundef %6, i32 noundef 4, i64 noundef %8, i64 noundef %12) #16
  store volatile i32 5, ptr %5, align 4
  %13 = getelementptr inbounds i8, ptr %0, i64 56
  store ptr %1, ptr %13, align 8
  ret void
}